target datalayout = "e-m:e-p270:32:32-p271:32:32-p272:64:64-i64:64-i128:128-f80:128-n8:16:32:64-S128"
target triple = "x86_64-pc-linux-gnu"

@.str.11 = private unnamed_addr constant [19 x i8] c"invalid UTF-8 code\00", align 1
@utf8_decode.limits = internal constant [6 x i32] [i32 -1, i32 128, i32 2048, i32 65536, i32 2097152, i32 67108864], align 16

; Function Attrs: nounwind uwtable
define internal ptr @utf8_decode(ptr noundef %0, ptr noundef %1, i32 noundef %2) #0 {
  %4 = alloca ptr, align 8
  %5 = alloca ptr, align 8
  %6 = alloca ptr, align 8
  %7 = alloca i32, align 4
  %8 = alloca i32, align 4
  %9 = alloca i32, align 4
  %10 = alloca i32, align 4
  %11 = alloca i32, align 4
  %12 = alloca i32, align 4
  store ptr %0, ptr %5, align 8, !tbaa !9
  store ptr %1, ptr %6, align 8, !tbaa !18
  store i32 %2, ptr %7, align 4, !tbaa !16
  call void @llvm.lifetime.start.p0(i64 4, ptr %8) #4
  %13 = load ptr, ptr %5, align 8, !tbaa !9
  %14 = getelementptr inbounds i8, ptr %13, i64 0
  %15 = load i8, ptr %14, align 1, !tbaa !15
  %16 = zext i8 %15 to i32
  store i32 %16, ptr %8, align 4, !tbaa !16
  call void @llvm.lifetime.start.p0(i64 4, ptr %9) #4
  store i32 0, ptr %9, align 4, !tbaa !16
  %17 = load i32, ptr %8, align 4, !tbaa !16
  %18 = icmp ult i32 %17, 128
  br i1 %18, label %19, label %21

19:                                               ; preds = %3
  %20 = load i32, ptr %8, align 4, !tbaa !16
  store i32 %20, ptr %9, align 4, !tbaa !16
  br label %79

21:                                               ; preds = %3
  call void @llvm.lifetime.start.p0(i64 4, ptr %10) #4
  store i32 0, ptr %10, align 4, !tbaa !16
  br label %22

22:                                               ; preds = %47, %21
  %23 = load i32, ptr %8, align 4, !tbaa !16
  %24 = and i32 %23, 64
  %25 = icmp ne i32 %24, 0
  br i1 %25, label %26, label %50

26:                                               ; preds = %22
  call void @llvm.lifetime.start.p0(i64 4, ptr %11) #4
  %27 = load ptr, ptr %5, align 8, !tbaa !9
  %28 = load i32, ptr %10, align 4, !tbaa !16
  %29 = add nsw i32 %28, 1
  store i32 %29, ptr %10, align 4, !tbaa !16
  %30 = sext i32 %29 to i64
  %31 = getelementptr inbounds i8, ptr %27, i64 %30
  %32 = load i8, ptr %31, align 1, !tbaa !15
  %33 = zext i8 %32 to i32
  store i32 %33, ptr %11, align 4, !tbaa !16
  %34 = load i32, ptr %11, align 4, !tbaa !16
  %35 = and i32 %34, 192
  %36 = icmp eq i32 %35, 128
  br i1 %36, label %38, label %37

37:                                               ; preds = %26
  store ptr null, ptr %4, align 8
  store i32 1, ptr %12, align 4
  br label %44

38:                                               ; preds = %26
  %39 = load i32, ptr %9, align 4, !tbaa !16
  %40 = shl i32 %39, 6
  %41 = load i32, ptr %11, align 4, !tbaa !16
  %42 = and i32 %41, 63
  %43 = or i32 %40, %42
  store i32 %43, ptr %9, align 4, !tbaa !16
  store i32 0, ptr %12, align 4
  br label %44

44:                                               ; preds = %38, %37
  call void @llvm.lifetime.end.p0(i64 4, ptr %11) #4
  %45 = load i32, ptr %12, align 4
  switch i32 %45, label %76 [
    i32 0, label %46
  ]

46:                                               ; preds = %44
  br label %47

47:                                               ; preds = %46
  %48 = load i32, ptr %8, align 4, !tbaa !16
  %49 = shl i32 %48, 1
  store i32 %49, ptr %8, align 4, !tbaa !16
  br label %22

50:                                               ; preds = %22
  %51 = load i32, ptr %8, align 4, !tbaa !16
  %52 = and i32 %51, 127
  %53 = load i32, ptr %10, align 4, !tbaa !16
  %54 = mul nsw i32 %53, 5
  %55 = shl i32 %52, %54
  %56 = load i32, ptr %9, align 4, !tbaa !16
  %57 = or i32 %56, %55
  store i32 %57, ptr %9, align 4, !tbaa !16
  %58 = load i32, ptr %10, align 4, !tbaa !16
  %59 = icmp sgt i32 %58, 5
  br i1 %59, label %70, label %60

60:                                               ; preds = %50
  %61 = load i32, ptr %9, align 4, !tbaa !16
  %62 = icmp ugt i32 %61, 2147483647
  br i1 %62, label %70, label %63

63:                                               ; preds = %60
  %64 = load i32, ptr %9, align 4, !tbaa !16
  %65 = load i32, ptr %10, align 4, !tbaa !16
  %66 = sext i32 %65 to i64
  %67 = getelementptr inbounds [6 x i32], ptr @utf8_decode.limits, i64 0, i64 %66
  %68 = load i32, ptr %67, align 4, !tbaa !16
  %69 = icmp ult i32 %64, %68
  br i1 %69, label %70, label %71

70:                                               ; preds = %63, %60, %50
  store ptr null, ptr %4, align 8
  store i32 1, ptr %12, align 4
  br label %76

71:                                               ; preds = %63
  %72 = load i32, ptr %10, align 4, !tbaa !16
  %73 = load ptr, ptr %5, align 8, !tbaa !9
  %74 = sext i32 %72 to i64
  %75 = getelementptr inbounds i8, ptr %73, i64 %74
  store ptr %75, ptr %5, align 8, !tbaa !9
  store i32 0, ptr %12, align 4
  br label %76

76:                                               ; preds = %71, %70, %44
  call void @llvm.lifetime.end.p0(i64 4, ptr %10) #4
  %77 = load i32, ptr %12, align 4
  switch i32 %77, label %102 [
    i32 0, label %78
  ]

78:                                               ; preds = %76
  br label %79

79:                                               ; preds = %78, %19
  %80 = load i32, ptr %7, align 4, !tbaa !16
  %81 = icmp ne i32 %80, 0
  br i1 %81, label %82, label %93

82:                                               ; preds = %79
  %83 = load i32, ptr %9, align 4, !tbaa !16
  %84 = icmp ugt i32 %83, 1114111
  br i1 %84, label %91, label %85

85:                                               ; preds = %82
  %86 = load i32, ptr %9, align 4, !tbaa !16
  %87 = icmp ule i32 55296, %86
  br i1 %87, label %88, label %92

88:                                               ; preds = %85
  %89 = load i32, ptr %9, align 4, !tbaa !16
  %90 = icmp ule i32 %89, 57343
  br i1 %90, label %91, label %92

91:                                               ; preds = %88, %82
  store ptr null, ptr %4, align 8
  store i32 1, ptr %12, align 4
  br label %102

92:                                               ; preds = %88, %85
  br label %93

93:                                               ; preds = %92, %79
  %94 = load ptr, ptr %6, align 8, !tbaa !18
  %95 = icmp ne ptr %94, null
  br i1 %95, label %96, label %99

96:                                               ; preds = %93
  %97 = load i32, ptr %9, align 4, !tbaa !16
  %98 = load ptr, ptr %6, align 8, !tbaa !18
  store i32 %97, ptr %98, align 4, !tbaa !16
  br label %99

99:                                               ; preds = %96, %93
  %100 = load ptr, ptr %5, align 8, !tbaa !9
  %101 = getelementptr inbounds i8, ptr %100, i64 1
  store ptr %101, ptr %4, align 8
  store i32 1, ptr %12, align 4
  br label %102

102:                                              ; preds = %99, %91, %76
  call void @llvm.lifetime.end.p0(i64 4, ptr %9) #4
  call void @llvm.lifetime.end.p0(i64 4, ptr %8) #4
  %103 = load ptr, ptr %4, align 8
  ret ptr %103
}

; Function Attrs: nounwind uwtable
define internal i32 @iter_aux(ptr noundef %0, i32 noundef %1) #0 {
  %3 = alloca i32, align 4
  %4 = alloca ptr, align 8
  %5 = alloca i32, align 4
  %6 = alloca i64, align 8
  %7 = alloca ptr, align 8
  %8 = alloca i64, align 8
  %9 = alloca i32, align 4
  %10 = alloca i32, align 4
  %11 = alloca ptr, align 8
  store ptr %0, ptr %4, align 8, !tbaa !4
  store i32 %1, ptr %5, align 4, !tbaa !16
  call void @llvm.lifetime.start.p0(i64 8, ptr %6) #4
  call void @llvm.lifetime.start.p0(i64 8, ptr %7) #4
  %12 = load ptr, ptr %4, align 8, !tbaa !4
  %13 = call ptr @luaL_checklstring(ptr noundef %12, i32 noundef 1, ptr noundef %6)
  store ptr %13, ptr %7, align 8, !tbaa !9
  call void @llvm.lifetime.start.p0(i64 8, ptr %8) #4
  %14 = load ptr, ptr %4, align 8, !tbaa !4
  %15 = call i64 @lua_tointegerx(ptr noundef %14, i32 noundef 2, ptr noundef null)
  store i64 %15, ptr %8, align 8, !tbaa !11
  %16 = load i64, ptr %8, align 8, !tbaa !11
  %17 = load i64, ptr %6, align 8, !tbaa !13
  %18 = icmp ult i64 %16, %17
  br i1 %18, label %19, label %32

19:                                               ; preds = %2
  br label %20

20:                                               ; preds = %28, %19
  %21 = load ptr, ptr %7, align 8, !tbaa !9
  %22 = load i64, ptr %8, align 8, !tbaa !11
  %23 = getelementptr inbounds nuw i8, ptr %21, i64 %22
  %24 = load i8, ptr %23, align 1, !tbaa !15
  %25 = sext i8 %24 to i32
  %26 = and i32 %25, 192
  %27 = icmp eq i32 %26, 128
  br i1 %27, label %28, label %31

28:                                               ; preds = %20
  %29 = load i64, ptr %8, align 8, !tbaa !11
  %30 = add i64 %29, 1
  store i64 %30, ptr %8, align 8, !tbaa !11
  br label %20

31:                                               ; preds = %20
  br label %32

32:                                               ; preds = %31, %2
  %33 = load i64, ptr %8, align 8, !tbaa !11
  %34 = load i64, ptr %6, align 8, !tbaa !13
  %35 = icmp uge i64 %33, %34
  br i1 %35, label %36, label %37

36:                                               ; preds = %32
  store i32 0, ptr %3, align 4
  store i32 1, ptr %9, align 4
  br label %62

37:                                               ; preds = %32
  call void @llvm.lifetime.start.p0(i64 4, ptr %10) #4
  call void @llvm.lifetime.start.p0(i64 8, ptr %11) #4
  %38 = load ptr, ptr %7, align 8, !tbaa !9
  %39 = load i64, ptr %8, align 8, !tbaa !11
  %40 = getelementptr inbounds nuw i8, ptr %38, i64 %39
  %41 = load i32, ptr %5, align 4, !tbaa !16
  %42 = call ptr @utf8_decode(ptr noundef %40, ptr noundef %10, i32 noundef %41)
  store ptr %42, ptr %11, align 8, !tbaa !9
  %43 = load ptr, ptr %11, align 8, !tbaa !9
  %44 = icmp eq ptr %43, null
  br i1 %44, label %51, label %45

45:                                               ; preds = %37
  %46 = load ptr, ptr %11, align 8, !tbaa !9
  %47 = load i8, ptr %46, align 1, !tbaa !15
  %48 = sext i8 %47 to i32
  %49 = and i32 %48, 192
  %50 = icmp eq i32 %49, 128
  br i1 %50, label %51, label %54

51:                                               ; preds = %45, %37
  %52 = load ptr, ptr %4, align 8, !tbaa !4
  %53 = call i32 (ptr, ptr, ...) @luaL_error(ptr noundef %52, ptr noundef @.str.11)
  store i32 %53, ptr %3, align 4
  store i32 1, ptr %9, align 4
  br label %61

54:                                               ; preds = %45
  %55 = load ptr, ptr %4, align 8, !tbaa !4
  %56 = load i64, ptr %8, align 8, !tbaa !11
  %57 = add i64 %56, 1
  call void @lua_pushinteger(ptr noundef %55, i64 noundef %57)
  %58 = load ptr, ptr %4, align 8, !tbaa !4
  %59 = load i32, ptr %10, align 4, !tbaa !16
  %60 = zext i32 %59 to i64
  call void @lua_pushinteger(ptr noundef %58, i64 noundef %60)
  store i32 2, ptr %3, align 4
  store i32 1, ptr %9, align 4
  br label %61

61:                                               ; preds = %54, %51
  call void @llvm.lifetime.end.p0(i64 8, ptr %11) #4
  call void @llvm.lifetime.end.p0(i64 4, ptr %10) #4
  br label %62

62:                                               ; preds = %61, %36
  call void @llvm.lifetime.end.p0(i64 8, ptr %8) #4
  call void @llvm.lifetime.end.p0(i64 8, ptr %7) #4
  call void @llvm.lifetime.end.p0(i64 8, ptr %6) #4
  %63 = load i32, ptr %3, align 4
  ret i32 %63
}