; Function Attrs: nounwind uwtable
define internal fastcc i32 @iter_aux(ptr noundef %0, i32 noundef range(i32 0, 2) %1) unnamed_addr #0 {
  %3 = alloca i64, align 8
  call void @llvm.lifetime.start.p0(i64 8, ptr nonnull %3) #3
  %4 = call ptr @luaL_checklstring(ptr noundef %0, i32 noundef 1, ptr noundef nonnull %3) #3
  %5 = call i64 @lua_tointegerx(ptr noundef %0, i32 noundef 2, ptr noundef null) #3
  %6 = load i64, ptr %3, align 8, !tbaa !4
  %7 = icmp ult i64 %5, %6
  br i1 %7, label %.preheader, label %.loopexit

.preheader:                                       ; preds = %2, %.preheader
  %.117 = phi i64 [ %11, %.preheader ], [ %5, %2 ]
  %8 = getelementptr inbounds nuw i8, ptr %4, i64 %.117
  %9 = load i8, ptr %8, align 1, !tbaa !9
  %10 = icmp slt i8 %9, -64
  %11 = add i64 %.117, 1
  br i1 %10, label %.preheader, label %.loopexit

.loopexit:                                        ; preds = %.preheader, %2
  %.016 = phi i64 [ %5, %2 ], [ %.117, %.preheader ]
  %.not = icmp ult i64 %.016, %6
  br i1 %.not, label %12, label %52

12:                                               ; preds = %.loopexit
  %13 = getelementptr inbounds nuw i8, ptr %4, i64 %.016
  %14 = load i8, ptr %13, align 1, !tbaa !9
  %15 = zext i8 %14 to i32
  %16 = icmp sgt i8 %14, -1
  br i1 %16, label %40, label %.preheader.i

.preheader.i:                                     ; preds = %12
  %17 = and i32 %15, 64
  %.not58.i = icmp eq i32 %17, 0
  br i1 %.not58.i, label %._crit_edge.i, label %.lr.ph.i

.lr.ph.i:                                         ; preds = %.preheader.i, %23
  %indvars.iv.i = phi i64 [ %indvars.iv.next.i, %23 ], [ 0, %.preheader.i ]
  %.13760.i = phi i32 [ %26, %23 ], [ 0, %.preheader.i ]
  %.04059.i = phi i32 [ %27, %23 ], [ %15, %.preheader.i ]
  %indvars.iv.next.i = add nuw nsw i64 %indvars.iv.i, 1
  %18 = getelementptr inbounds nuw i8, ptr %13, i64 %indvars.iv.next.i
  %19 = load i8, ptr %18, align 1, !tbaa !9
  %20 = zext i8 %19 to i32
  %21 = and i32 %20, 192
  %22 = icmp eq i32 %21, 128
  br i1 %22, label %23, label %utf8_decode.exit.thread

23:                                               ; preds = %.lr.ph.i
  %24 = shl i32 %.13760.i, 6
  %25 = and i32 %20, 63
  %26 = or disjoint i32 %25, %24
  %27 = shl i32 %.04059.i, 1
  %28 = and i32 %.04059.i, 32
  %.not.i = icmp eq i32 %28, 0
  br i1 %.not.i, label %._crit_edge.loopexit.i, label %.lr.ph.i

._crit_edge.loopexit.i:                           ; preds = %23
  %29 = trunc nuw nsw i64 %indvars.iv.next.i to i32
  br label %._crit_edge.i

._crit_edge.i:                                    ; preds = %._crit_edge.loopexit.i, %.preheader.i
  %.040.lcssa.i = phi i32 [ %15, %.preheader.i ], [ %27, %._crit_edge.loopexit.i ]
  %.137.lcssa.i = phi i32 [ 0, %.preheader.i ], [ %26, %._crit_edge.loopexit.i ]
  %.035.lcssa.i = phi i32 [ 0, %.preheader.i ], [ %29, %._crit_edge.loopexit.i ]
  %30 = and i32 %.040.lcssa.i, 63
  %31 = mul nuw nsw i32 %.035.lcssa.i, 5
  %32 = shl i32 %30, %31
  %33 = or i32 %32, %.137.lcssa.i
  %34 = icmp samesign ugt i32 %.035.lcssa.i, 5
  %35 = icmp slt i32 %33, 0
  %or.cond.i = select i1 %34, i1 true, i1 %35
  br i1 %or.cond.i, label %utf8_decode.exit.thread, label %36

36:                                               ; preds = %._crit_edge.i
  %37 = zext nneg i32 %.035.lcssa.i to i64
  %38 = getelementptr inbounds nuw [6 x i32], ptr @utf8_decode.limits, i64 0, i64 %37
  %39 = load i32, ptr %38, align 4, !tbaa !12
  %.not54.i = icmp ult i32 %33, %39
  %spec.select.idx.i = select i1 %.not54.i, i64 0, i64 %37
  %spec.select.i = getelementptr inbounds nuw i8, ptr %13, i64 %spec.select.idx.i
  br i1 %.not54.i, label %utf8_decode.exit.thread, label %40

40:                                               ; preds = %36, %12
  %.041.i = phi ptr [ %spec.select.i, %36 ], [ %13, %12 ]
  %.036.i = phi i32 [ %33, %36 ], [ %15, %12 ]
  %.not47.i = icmp eq i32 %1, 0
  br i1 %.not47.i, label %44, label %41

41:                                               ; preds = %40
  %42 = icmp samesign ugt i32 %.036.i, 1114111
  %43 = and i32 %.036.i, 2095104
  %or.cond4.i = icmp eq i32 %43, 55296
  %or.cond49.i = or i1 %42, %or.cond4.i
  br i1 %or.cond49.i, label %utf8_decode.exit.thread, label %44

44:                                               ; preds = %41, %40
  %45 = getelementptr inbounds nuw i8, ptr %.041.i, i64 1
  %46 = load i8, ptr %45, align 1, !tbaa !9
  %47 = icmp slt i8 %46, -64
  br i1 %47, label %utf8_decode.exit.thread, label %49

utf8_decode.exit.thread:                          ; preds = %.lr.ph.i, %._crit_edge.i, %41, %36, %44
  %48 = call i32 (ptr, ptr, ...) @luaL_error(ptr noundef %0, ptr noundef nonnull @.str.11) #3
  br label %52

49:                                               ; preds = %44
  %50 = add i64 %.016, 1
  call void @lua_pushinteger(ptr noundef %0, i64 noundef %50) #3
  %51 = zext nneg i32 %.036.i to i64
  call void @lua_pushinteger(ptr noundef %0, i64 noundef %51) #3
  br label %52

52:                                               ; preds = %utf8_decode.exit.thread, %49, %.loopexit
  %.0 = phi i32 [ 0, %.loopexit ], [ %48, %utf8_decode.exit.thread ], [ 2, %49 ]
  call void @llvm.lifetime.end.p0(i64 8, ptr nonnull %3) #3
  ret i32 %.0
}